target datalayout = "e-m:e-p270:32:32-p271:32:32-p272:64:64-i64:64-i128:128-f80:128-n8:16:32:64-S128"
target triple = "x86_64-unknown-linux-gnu"

%"class.std::__cxx11::basic_string" = type { %"struct.std::__cxx11::basic_string<char>::_Alloc_hider", i64, %union.anon }
%"struct.std::__cxx11::basic_string<char>::_Alloc_hider" = type { ptr }
%union.anon = type { i64, [8 x i8] }
%"class.rocksdb::PosixRandomAccessFile" = type { %"class.rocksdb::FSRandomAccessFile", %"class.std::__cxx11::basic_string", i32, i8, i64, ptr }
%"class.rocksdb::FSRandomAccessFile" = type { ptr }

; Function Attrs: mustprogress nounwind uwtable
define linkonce_odr void @_ZN7rocksdb18FSRandomAccessFileD2Ev(ptr noundef nonnull align 8 dereferenceable(8) %this) unnamed_addr #3 comdat align 2 {
entry:
  %this.addr = alloca ptr, align 8
  store ptr %this, ptr %this.addr, align 8
  ret void
}

; Function Attrs: mustprogress nounwind uwtable
define void @_ZN7rocksdb21PosixRandomAccessFileD2Ev(ptr noundef nonnull align 8 dereferenceable(64) %this) unnamed_addr #3 align 2 personality ptr @__gxx_personality_v0 {
entry:
  %this.addr = alloca ptr, align 8
  store ptr %this, ptr %this.addr, align 8
  %this1 = load ptr, ptr %this.addr, align 8
  store ptr getelementptr inbounds ({ [14 x ptr] }, ptr @_ZTVN7rocksdb21PosixRandomAccessFileE, i32 0, i32 0, i32 2), ptr %this1, align 8
  %fd_ = getelementptr inbounds %"class.rocksdb::PosixRandomAccessFile", ptr %this1, i32 0, i32 2
  %0 = load i32, ptr %fd_, align 8
  %call = invoke i32 @close(i32 noundef %0)
          to label %invoke.cont unwind label %terminate.lpad

invoke.cont:                                      ; preds = %entry
  %filename_ = getelementptr inbounds %"class.rocksdb::PosixRandomAccessFile", ptr %this1, i32 0, i32 1
  call void @_ZNSt7__cxx1112basic_stringIcSt11char_traitsIcESaIcEED1Ev(ptr noundef nonnull align 8 dereferenceable(32) %filename_) #15
  call void @_ZN7rocksdb18FSRandomAccessFileD2Ev(ptr noundef nonnull align 8 dereferenceable(8) %this1) #15
  ret void

terminate.lpad:                                   ; preds = %entry
  %1 = landingpad { ptr, i32 }
          catch ptr null
  %2 = extractvalue { ptr, i32 } %1, 0
  call void @__clang_call_terminate(ptr %2) #17
  unreachable
}