; Function Attrs: mustprogress nounwind uwtable
define void @_ZN7rocksdb21PosixRandomAccessFileD2Ev(ptr noundef nonnull align 8 dereferenceable(64) %this) unnamed_addr #3 align 2 personality ptr @__gxx_personality_v0 {
entry:
  store ptr getelementptr inbounds ({ [14 x ptr] }, ptr @_ZTVN7rocksdb21PosixRandomAccessFileE, i64 0, i32 0, i64 2), ptr %this, align 8
  %fd_ = getelementptr inbounds i8, ptr %this, i64 40
  %0 = load i32, ptr %fd_, align 8
  %call = invoke i32 @close(i32 noundef %0)
          to label %invoke.cont unwind label %terminate.lpad

invoke.cont:                                      ; preds = %entry
  %filename_ = getelementptr inbounds i8, ptr %this, i64 8
  tail call void @_ZNSt7__cxx1112basic_stringIcSt11char_traitsIcESaIcEED1Ev(ptr noundef nonnull align 8 dereferenceable(32) %filename_) #25
  ret void

terminate.lpad:                                   ; preds = %entry
  %1 = landingpad { ptr, i32 }
          catch ptr null
  %2 = extractvalue { ptr, i32 } %1, 0
  tail call void @__clang_call_terminate(ptr %2) #28
  unreachable
}